target datalayout = "e-m:e-p270:32:32-p271:32:32-p272:64:64-i64:64-i128:128-f80:128-n8:16:32:64-S128"
target triple = "x86_64-pc-linux-gnu"

%struct.mime_state = type { i32, ptr, i64 }
%struct.curl_mime = type { ptr, ptr, ptr, [47 x i8], %struct.mime_state }

@Curl_cfree = external global ptr, align 8
@Curl_cmalloc = external global ptr, align 8

; Function Attrs: nounwind uwtable
define internal void @mimesetstate(ptr noundef %0, i32 noundef %1, ptr noundef %2) #0 {
  %4 = alloca ptr, align 8
  %5 = alloca i32, align 4
  %6 = alloca ptr, align 8
  store ptr %0, ptr %4, align 8, !tbaa !57
  store i32 %1, ptr %5, align 4, !tbaa !45
  store ptr %2, ptr %6, align 8, !tbaa !22
  %7 = load i32, ptr %5, align 4, !tbaa !45
  %8 = load ptr, ptr %4, align 8, !tbaa !57
  %9 = getelementptr inbounds nuw %struct.mime_state, ptr %8, i32 0, i32 0
  store i32 %7, ptr %9, align 8, !tbaa !59
  %10 = load ptr, ptr %6, align 8, !tbaa !22
  %11 = load ptr, ptr %4, align 8, !tbaa !57
  %12 = getelementptr inbounds nuw %struct.mime_state, ptr %11, i32 0, i32 1
  store ptr %10, ptr %12, align 8, !tbaa !60
  %13 = load ptr, ptr %4, align 8, !tbaa !57
  %14 = getelementptr inbounds nuw %struct.mime_state, ptr %13, i32 0, i32 2
  store i64 0, ptr %14, align 8, !tbaa !61
  ret void
}

; Function Attrs: nounwind uwtable
define dso_local ptr @curl_mime_init(ptr noundef %0) #0 {
  %2 = alloca ptr, align 8
  %3 = alloca ptr, align 8
  %4 = alloca ptr, align 8
  %5 = alloca i32, align 4
  store ptr %0, ptr %3, align 8, !tbaa !22
  call void @llvm.lifetime.start.p0(i64 8, ptr %4) #8
  %6 = load ptr, ptr @Curl_cmalloc, align 8, !tbaa !22
  %7 = call ptr %6(i64 noundef 96)
  store ptr %7, ptr %4, align 8, !tbaa !36
  %8 = load ptr, ptr %4, align 8, !tbaa !36
  %9 = icmp ne ptr %8, null
  br i1 %9, label %10, label %32

10:                                               ; preds = %1
  %11 = load ptr, ptr %4, align 8, !tbaa !36
  %12 = getelementptr inbounds nuw %struct.curl_mime, ptr %11, i32 0, i32 0
  store ptr null, ptr %12, align 8, !tbaa !42
  %13 = load ptr, ptr %4, align 8, !tbaa !36
  %14 = getelementptr inbounds nuw %struct.curl_mime, ptr %13, i32 0, i32 1
  store ptr null, ptr %14, align 8, !tbaa !37
  %15 = load ptr, ptr %4, align 8, !tbaa !36
  %16 = getelementptr inbounds nuw %struct.curl_mime, ptr %15, i32 0, i32 2
  store ptr null, ptr %16, align 8, !tbaa !55
  %17 = load ptr, ptr %4, align 8, !tbaa !36
  %18 = getelementptr inbounds nuw %struct.curl_mime, ptr %17, i32 0, i32 3
  %19 = getelementptr inbounds [47 x i8], ptr %18, i64 0, i64 0
  call void @llvm.memset.p0.i64(ptr align 8 %19, i8 45, i64 24, i1 false)
  %20 = load ptr, ptr %3, align 8, !tbaa !22
  %21 = load ptr, ptr %4, align 8, !tbaa !36
  %22 = getelementptr inbounds nuw %struct.curl_mime, ptr %21, i32 0, i32 3
  %23 = getelementptr inbounds [47 x i8], ptr %22, i64 0, i64 24
  %24 = call i32 @Curl_rand_alnum(ptr noundef %20, ptr noundef %23, i64 noundef 23)
  %25 = icmp ne i32 %24, 0
  br i1 %25, label %26, label %29

26:                                               ; preds = %10
  %27 = load ptr, ptr @Curl_cfree, align 8, !tbaa !22
  %28 = load ptr, ptr %4, align 8, !tbaa !36
  call void %27(ptr noundef %28)
  store ptr null, ptr %2, align 8
  store i32 1, ptr %5, align 4
  br label %34

29:                                               ; preds = %10
  %30 = load ptr, ptr %4, align 8, !tbaa !36
  %31 = getelementptr inbounds nuw %struct.curl_mime, ptr %30, i32 0, i32 4
  call void @mimesetstate(ptr noundef %31, i32 noundef 0, ptr noundef null)
  br label %32

32:                                               ; preds = %29, %1
  %33 = load ptr, ptr %4, align 8, !tbaa !36
  store ptr %33, ptr %2, align 8
  store i32 1, ptr %5, align 4
  br label %34

34:                                               ; preds = %32, %26
  call void @llvm.lifetime.end.p0(i64 8, ptr %4) #8
  %35 = load ptr, ptr %2, align 8
  ret ptr %35
}