; Function Attrs: nounwind uwtable
define dso_local ptr @curl_mime_init(ptr noundef %0) local_unnamed_addr #0 {
  %2 = load ptr, ptr @Curl_cmalloc, align 8, !tbaa !29
  %3 = tail call ptr %2(i64 noundef 96) #18
  %.not = icmp eq ptr %3, null
  br i1 %.not, label %13, label %4

4:                                                ; preds = %1
  %5 = getelementptr inbounds nuw i8, ptr %3, i64 24
  tail call void @llvm.memset.p0.i64(ptr noundef nonnull align 8 dereferenceable(24) %3, i8 0, i64 24, i1 false)
  tail call void @llvm.memset.p0.i64(ptr noundef nonnull align 8 dereferenceable(24) %5, i8 45, i64 24, i1 false)
  %6 = getelementptr inbounds nuw i8, ptr %3, i64 48
  %7 = tail call i32 @Curl_rand_alnum(ptr noundef %0, ptr noundef nonnull %6, i64 noundef 23) #18
  %.not12 = icmp eq i32 %7, 0
  br i1 %.not12, label %10, label %8

8:                                                ; preds = %4
  %9 = load ptr, ptr @Curl_cfree, align 8, !tbaa !29
  tail call void %9(ptr noundef nonnull %3) #18
  br label %13

10:                                               ; preds = %4
  %11 = getelementptr inbounds nuw i8, ptr %3, i64 72
  store i32 0, ptr %11, align 8, !tbaa !41
  %12 = getelementptr inbounds nuw i8, ptr %3, i64 80
  tail call void @llvm.memset.p0.i64(ptr noundef nonnull align 8 dereferenceable(16) %12, i8 0, i64 16, i1 false)
  br label %13

13:                                               ; preds = %1, %10, %8
  %.0 = phi ptr [ null, %8 ], [ %3, %10 ], [ null, %1 ]
  ret ptr %.0
}